target datalayout = "e-m:e-p270:32:32-p271:32:32-p272:64:64-i64:64-i128:128-f80:128-n8:16:32:64-S128"
target triple = "x86_64-pc-linux-gnu"

; Function Attrs: mustprogress nounwind uwtable
define hidden noundef zeroext i1 @_ZN4cvc58internal6theory11quantifiers8TermUtil6isCommENS0_4kind6Kind_tEb(i32 noundef %0, i1 noundef zeroext %1) #7 align 2 {
  %3 = alloca i1, align 1
  %4 = alloca i32, align 4
  %5 = alloca i8, align 1
  store i32 %0, ptr %4, align 4, !tbaa !50
  %6 = zext i1 %1 to i8
  store i8 %6, ptr %5, align 1, !tbaa !22
  %7 = load i8, ptr %5, align 1, !tbaa !22, !range !24, !noundef !25
  %8 = trunc i8 %7 to i1
  br i1 %8, label %9, label %17

9:                                                ; preds = %2
  %10 = load i32, ptr %4, align 4, !tbaa !50
  %11 = icmp eq i32 %10, 254
  br i1 %11, label %15, label %12

12:                                               ; preds = %9
  %13 = load i32, ptr %4, align 4, !tbaa !50
  %14 = icmp eq i32 %13, 255
  br i1 %14, label %15, label %16

15:                                               ; preds = %12, %9
  store i1 false, ptr %3, align 1
  br label %67

16:                                               ; preds = %12
  br label %17

17:                                               ; preds = %16, %2
  %18 = load i32, ptr %4, align 4, !tbaa !50
  %19 = icmp eq i32 %18, 5
  br i1 %19, label %65, label %20

20:                                               ; preds = %17
  %21 = load i32, ptr %4, align 4, !tbaa !50
  %22 = icmp eq i32 %21, 39
  br i1 %22, label %65, label %23

23:                                               ; preds = %20
  %24 = load i32, ptr %4, align 4, !tbaa !50
  %25 = icmp eq i32 %24, 40
  br i1 %25, label %65, label %26

26:                                               ; preds = %23
  %27 = load i32, ptr %4, align 4, !tbaa !50
  %28 = icmp eq i32 %27, 41
  br i1 %28, label %65, label %29

29:                                               ; preds = %26
  %30 = load i32, ptr %4, align 4, !tbaa !50
  %31 = icmp eq i32 %30, 22
  br i1 %31, label %65, label %32

32:                                               ; preds = %29
  %33 = load i32, ptr %4, align 4, !tbaa !50
  %34 = icmp eq i32 %33, 24
  br i1 %34, label %65, label %35

35:                                               ; preds = %32
  %36 = load i32, ptr %4, align 4, !tbaa !50
  %37 = icmp eq i32 %36, 25
  br i1 %37, label %65, label %38

38:                                               ; preds = %35
  %39 = load i32, ptr %4, align 4, !tbaa !50
  %40 = icmp eq i32 %39, 103
  br i1 %40, label %65, label %41

41:                                               ; preds = %38
  %42 = load i32, ptr %4, align 4, !tbaa !50
  %43 = icmp eq i32 %42, 101
  br i1 %43, label %65, label %44

44:                                               ; preds = %41
  %45 = load i32, ptr %4, align 4, !tbaa !50
  %46 = icmp eq i32 %45, 93
  br i1 %46, label %65, label %47

47:                                               ; preds = %44
  %48 = load i32, ptr %4, align 4, !tbaa !50
  %49 = icmp eq i32 %48, 95
  br i1 %49, label %65, label %50

50:                                               ; preds = %47
  %51 = load i32, ptr %4, align 4, !tbaa !50
  %52 = icmp eq i32 %51, 96
  br i1 %52, label %65, label %53

53:                                               ; preds = %50
  %54 = load i32, ptr %4, align 4, !tbaa !50
  %55 = icmp eq i32 %54, 100
  br i1 %55, label %65, label %56

56:                                               ; preds = %53
  %57 = load i32, ptr %4, align 4, !tbaa !50
  %58 = icmp eq i32 %57, 254
  br i1 %58, label %65, label %59

59:                                               ; preds = %56
  %60 = load i32, ptr %4, align 4, !tbaa !50
  %61 = icmp eq i32 %60, 255
  br i1 %61, label %65, label %62

62:                                               ; preds = %59
  %63 = load i32, ptr %4, align 4, !tbaa !50
  %64 = icmp eq i32 %63, 249
  br label %65

65:                                               ; preds = %62, %59, %56, %53, %50, %47, %44, %41, %38, %35, %32, %29, %26, %23, %20, %17
  %66 = phi i1 [ true, %59 ], [ true, %56 ], [ true, %53 ], [ true, %50 ], [ true, %47 ], [ true, %44 ], [ true, %41 ], [ true, %38 ], [ true, %35 ], [ true, %32 ], [ true, %29 ], [ true, %26 ], [ true, %23 ], [ true, %20 ], [ true, %17 ], [ %64, %62 ]
  store i1 %66, ptr %3, align 1
  br label %67

67:                                               ; preds = %65, %15
  %68 = load i1, ptr %3, align 1
  ret i1 %68
}